target datalayout = "e-m:e-p270:32:32-p271:32:32-p272:64:64-i64:64-i128:128-f80:128-n8:16:32:64-S128"
target triple = "x86_64-pc-linux-gnu"

%union.jvalue = type { i64 }

@jvm_xawt = hidden global ptr null, align 8
@current_native_xerror_handler = external global ptr, align 8
@.str.10 = private unnamed_addr constant [30 x i8] c"sun/awt/X11/XErrorHandlerUtil\00", align 1
@.str.11 = private unnamed_addr constant [19 x i8] c"globalErrorHandler\00", align 1
@.str.12 = private unnamed_addr constant [6 x i8] c"(JJ)I\00", align 1

; Function Attrs: nounwind uwtable
define internal i32 @ToolkitErrorHandler(ptr noundef %0, ptr noundef %1) #0 {
  %3 = alloca i32, align 4
  %4 = alloca ptr, align 8
  %5 = alloca ptr, align 8
  %6 = alloca ptr, align 8
  %7 = alloca %union.jvalue, align 8
  store ptr %0, ptr %4, align 8
  store ptr %1, ptr %5, align 8
  %8 = load ptr, ptr @current_native_xerror_handler, align 8
  %9 = icmp ne ptr %8, null
  br i1 %9, label %10, label %15

10:                                               ; preds = %2
  %11 = load ptr, ptr @current_native_xerror_handler, align 8
  %12 = load ptr, ptr %4, align 8
  %13 = load ptr, ptr %5, align 8
  %14 = call i32 %11(ptr noundef %12, ptr noundef %13)
  br label %15

15:                                               ; preds = %10, %2
  %16 = load ptr, ptr @jvm_xawt, align 8
  %17 = icmp ne ptr %16, null
  br i1 %17, label %18, label %33

18:                                               ; preds = %15
  %19 = load ptr, ptr @jvm_xawt, align 8
  %20 = call ptr @JNU_GetEnv(ptr noundef %19, i32 noundef 65538)
  store ptr %20, ptr %6, align 8
  %21 = load ptr, ptr %6, align 8
  %22 = icmp ne ptr %21, null
  br i1 %22, label %23, label %32

23:                                               ; preds = %18
  %24 = load ptr, ptr %6, align 8
  %25 = load ptr, ptr %4, align 8
  %26 = ptrtoint ptr %25 to i64
  %27 = load ptr, ptr %5, align 8
  %28 = ptrtoint ptr %27 to i64
  %29 = call i64 (ptr, ptr, ptr, ptr, ptr, ...) @JNU_CallStaticMethodByName(ptr noundef %24, ptr noundef null, ptr noundef @.str.10, ptr noundef @.str.11, ptr noundef @.str.12, i64 noundef %26, i64 noundef %28)
  %30 = getelementptr inbounds %union.jvalue, ptr %7, i32 0, i32 0
  store i64 %29, ptr %30, align 8
  %31 = load i32, ptr %7, align 8
  store i32 %31, ptr %3, align 4
  br label %34

32:                                               ; preds = %18
  br label %33

33:                                               ; preds = %32, %15
  store i32 0, ptr %3, align 4
  br label %34

34:                                               ; preds = %33, %23
  %35 = load i32, ptr %3, align 4
  ret i32 %35
}