; Function Attrs: nounwind uwtable
define internal i32 @ToolkitErrorHandler(ptr noundef %0, ptr noundef %1) #0 {
  %3 = load ptr, ptr @current_native_xerror_handler, align 8
  %.not = icmp eq ptr %3, null
  br i1 %.not, label %6, label %4

4:                                                ; preds = %2
  %5 = tail call i32 %3(ptr noundef %0, ptr noundef %1) #14
  br label %6

6:                                                ; preds = %4, %2
  %7 = load ptr, ptr @jvm_xawt, align 8
  %.not9 = icmp eq ptr %7, null
  br i1 %.not9, label %14, label %8

8:                                                ; preds = %6
  %9 = tail call ptr @JNU_GetEnv(ptr noundef nonnull %7, i32 noundef 65538) #14
  %.not10 = icmp eq ptr %9, null
  br i1 %.not10, label %14, label %10

10:                                               ; preds = %8
  %11 = ptrtoint ptr %0 to i64
  %12 = ptrtoint ptr %1 to i64
  %13 = tail call i64 (ptr, ptr, ptr, ptr, ptr, ...) @JNU_CallStaticMethodByName(ptr noundef nonnull %9, ptr noundef null, ptr noundef nonnull @.str.10, ptr noundef nonnull @.str.11, ptr noundef nonnull @.str.12, i64 noundef %11, i64 noundef %12) #14
  %.sroa.0.0.extract.trunc = trunc i64 %13 to i32
  br label %14

14:                                               ; preds = %6, %8, %10
  %.0 = phi i32 [ %.sroa.0.0.extract.trunc, %10 ], [ 0, %8 ], [ 0, %6 ]
  ret i32 %.0
}